target datalayout = "e-m:e-p270:32:32-p271:32:32-p272:64:64-i64:64-i128:128-f80:128-n8:16:32:64-S128"
target triple = "x86_64-pc-linux-gnu"

%struct.filter_info_t = type { i32, i32, [20 x i32], i64 }
%struct.chunk_info_t = type { [32 x i64], i32 }
%struct.pack_opt_t = type { ptr, i32, i32, [6 x %struct.filter_info_t], i32, %struct.chunk_info_t, i32, i32, i8, i8, i64, i32, i8, i32, i32, i64, i64, i32, i32, [8 x i32], ptr, i64, i64, i64, i64, i32, i32, i64, i64 }

@.str = private unnamed_addr constant [45 x i8] c"maximum number of filters exceeded for <%s>\0A\00", align 1

; Function Attrs: nounwind uwtable
define dso_local i32 @h5repack_addfilter(ptr noundef %0, ptr noundef %1) #0 {
  %3 = alloca i32, align 4
  %4 = alloca ptr, align 8
  %5 = alloca ptr, align 8
  %6 = alloca ptr, align 8
  %7 = alloca %struct.filter_info_t, align 8
  %8 = alloca i32, align 4
  %9 = alloca i32, align 4
  %10 = alloca i32, align 4
  store ptr %0, ptr %4, align 8
  store ptr %1, ptr %5, align 8
  store ptr null, ptr %6, align 8
  %11 = load ptr, ptr %4, align 8
  %12 = load ptr, ptr %5, align 8
  %13 = call ptr @parse_filter(ptr noundef %11, ptr noundef %8, ptr noundef %7, ptr noundef %12, ptr noundef %9)
  store ptr %13, ptr %6, align 8
  %14 = icmp eq ptr null, %13
  br i1 %14, label %15, label %16

15:                                               ; preds = %2
  store i32 -1, ptr %3, align 4
  br label %46

16:                                               ; preds = %2
  %17 = load i32, ptr %9, align 4
  %18 = icmp ne i32 %17, 0
  br i1 %18, label %19, label %37

19:                                               ; preds = %16
  %20 = load ptr, ptr %5, align 8
  %21 = getelementptr inbounds %struct.pack_opt_t, ptr %20, i32 0, i32 4
  %22 = load i32, ptr %21, align 8
  %23 = add nsw i32 %22, 1
  store i32 %23, ptr %21, align 8
  store i32 %22, ptr %10, align 4
  %24 = load ptr, ptr %5, align 8
  %25 = getelementptr inbounds %struct.pack_opt_t, ptr %24, i32 0, i32 4
  %26 = load i32, ptr %25, align 8
  %27 = icmp sgt i32 %26, 6
  br i1 %27, label %28, label %31

28:                                               ; preds = %19
  %29 = load ptr, ptr %4, align 8
  call void (ptr, ...) @error_msg(ptr noundef @.str, ptr noundef %29)
  %30 = load ptr, ptr %6, align 8
  call void @free(ptr noundef %30) #7
  store i32 -1, ptr %3, align 4
  br label %46

31:                                               ; preds = %19
  %32 = load ptr, ptr %5, align 8
  %33 = getelementptr inbounds %struct.pack_opt_t, ptr %32, i32 0, i32 3
  %34 = load i32, ptr %10, align 4
  %35 = sext i32 %34 to i64
  %36 = getelementptr inbounds [6 x %struct.filter_info_t], ptr %33, i64 0, i64 %35
  call void @llvm.memcpy.p0.p0.i64(ptr align 8 %36, ptr align 8 %7, i64 96, i1 false)
  br label %44

37:                                               ; preds = %16
  %38 = load ptr, ptr %6, align 8
  %39 = load i32, ptr %8, align 4
  %40 = load ptr, ptr %5, align 8
  %41 = getelementptr inbounds %struct.pack_opt_t, ptr %40, i32 0, i32 0
  %42 = load ptr, ptr %41, align 8
  %43 = call i32 @options_add_filter(ptr noundef %38, i32 noundef %39, ptr noundef byval(%struct.filter_info_t) align 8 %7, ptr noundef %42)
  br label %44

44:                                               ; preds = %37, %31
  %45 = load ptr, ptr %6, align 8
  call void @free(ptr noundef %45) #7
  store i32 0, ptr %3, align 4
  br label %46

46:                                               ; preds = %44, %28, %15
  %47 = load i32, ptr %3, align 4
  ret i32 %47
}