; Function Attrs: nounwind uwtable
define dso_local range(i32 -1, 1) i32 @h5repack_addfilter(ptr noundef %0, ptr noundef %1) local_unnamed_addr #0 {
  %3 = alloca %struct.filter_info_t, align 8
  %4 = alloca i32, align 4
  %5 = alloca i32, align 4
  %6 = call ptr @parse_filter(ptr noundef %0, ptr noundef nonnull %4, ptr noundef nonnull %3, ptr noundef %1, ptr noundef nonnull %5) #10
  %7 = icmp eq ptr %6, null
  br i1 %7, label %24, label %8

8:                                                ; preds = %2
  %9 = load i32, ptr %5, align 4
  %.not = icmp eq i32 %9, 0
  br i1 %.not, label %20, label %10

10:                                               ; preds = %8
  %11 = getelementptr inbounds nuw i8, ptr %1, i64 592
  %12 = load i32, ptr %11, align 8
  %13 = add nsw i32 %12, 1
  store i32 %13, ptr %11, align 8
  %14 = icmp sgt i32 %12, 5
  br i1 %14, label %15, label %16

15:                                               ; preds = %10
  call void (ptr, ...) @error_msg(ptr noundef nonnull @.str, ptr noundef %0) #10
  br label %.sink.split

16:                                               ; preds = %10
  %17 = getelementptr inbounds nuw i8, ptr %1, i64 16
  %18 = sext i32 %12 to i64
  %19 = getelementptr inbounds [6 x %struct.filter_info_t], ptr %17, i64 0, i64 %18
  call void @llvm.memcpy.p0.p0.i64(ptr noundef nonnull align 8 dereferenceable(96) %19, ptr noundef nonnull align 8 dereferenceable(96) %3, i64 96, i1 false)
  br label %.sink.split

20:                                               ; preds = %8
  %21 = load i32, ptr %4, align 4
  %22 = load ptr, ptr %1, align 8
  %23 = call i32 @options_add_filter(ptr noundef nonnull %6, i32 noundef %21, ptr noundef nonnull byval(%struct.filter_info_t) align 8 %3, ptr noundef %22) #10
  br label %.sink.split

.sink.split:                                      ; preds = %16, %20, %15
  %.0.ph = phi i32 [ -1, %15 ], [ 0, %20 ], [ 0, %16 ]
  call void @free(ptr noundef nonnull %6) #10
  br label %24

24:                                               ; preds = %.sink.split, %2
  %.0 = phi i32 [ -1, %2 ], [ %.0.ph, %.sink.split ]
  ret i32 %.0
}